#include <math.h>
#include <stdio.h>
#include <stdlib.h>
#include <string.h>


int main()
{
   int a[100][101],b[101][100],c[100][100],i,j,k,p,q,x,y,m,n,s;
   scanf("%d %d",&m,&q);
   for(i=0;i<m;i++)
   {
     for(j=0;j<(q-1);j++)
     {
       scanf("%d ",&a[i][j]);
     }
     scanf("%d",&a[i][q-1]);
   }
   scanf("%d %d",&q,&n);
   for(i=0;i<q;i++)
   {
     for(j=0;j<(n-1);j++)
     {
       scanf("%d ",&b[i][j]);
     }
     scanf("%d",&b[i][n-1]);
   }
   for(i=0;i<m;i++)
   {
     for(j=0;j<n;j++)
     { s=0;
       for(k=0;k<=q;k++)
       {
         s=s+a[i][k]*b[k][j];
       } 
       c[i][j]=s;
     
     }
   }
   for(i=0;i<m;i++)
   {
     for(j=0;j<(n-1);j++)
     {
       printf("%d ",c[i][j]);
     }
     printf("%d\n",c[i][n-1]);
   }



}
