; ModuleID = '63/1386.c'
source_filename = "63/1386.c"
target datalayout = "e-m:e-p270:32:32-p271:32:32-p272:64:64-i64:64-f80:128-n8:16:32:64-S128"
target triple = "x86_64-pc-linux-gnu"

@.str = private unnamed_addr constant [6 x i8] c"%d %d\00", align 1
@.str.1 = private unnamed_addr constant [4 x i8] c"%d \00", align 1
@.str.2 = private unnamed_addr constant [3 x i8] c"%d\00", align 1
@.str.3 = private unnamed_addr constant [4 x i8] c"%d\0A\00", align 1

; Function Attrs: noinline nounwind uwtable
define dso_local i32 @main() #0 {
  %1 = alloca i32, align 4
  %2 = alloca [100 x [101 x i32]], align 16
  %3 = alloca [101 x [100 x i32]], align 16
  %4 = alloca [100 x [100 x i32]], align 16
  %5 = alloca i32, align 4
  %6 = alloca i32, align 4
  %7 = alloca i32, align 4
  %8 = alloca i32, align 4
  %9 = alloca i32, align 4
  %10 = alloca i32, align 4
  %11 = alloca i32, align 4
  %12 = alloca i32, align 4
  %13 = alloca i32, align 4
  %14 = alloca i32, align 4
  store i32 0, i32* %1, align 4
  %15 = call i32 (i8*, ...) @__isoc99_scanf(i8* getelementptr inbounds ([6 x i8], [6 x i8]* @.str, i64 0, i64 0), i32* %12, i32* %9)
  store i32 0, i32* %5, align 4
  br label %16

16:                                               ; preds = %46, %0
  %17 = load i32, i32* %5, align 4
  %18 = load i32, i32* %12, align 4
  %19 = icmp slt i32 %17, %18
  br i1 %19, label %20, label %49

20:                                               ; preds = %16
  store i32 0, i32* %6, align 4
  br label %21

21:                                               ; preds = %34, %20
  %22 = load i32, i32* %6, align 4
  %23 = load i32, i32* %9, align 4
  %24 = sub nsw i32 %23, 1
  %25 = icmp slt i32 %22, %24
  br i1 %25, label %26, label %37

26:                                               ; preds = %21
  %27 = load i32, i32* %5, align 4
  %28 = sext i32 %27 to i64
  %29 = getelementptr inbounds [100 x [101 x i32]], [100 x [101 x i32]]* %2, i64 0, i64 %28
  %30 = load i32, i32* %6, align 4
  %31 = sext i32 %30 to i64
  %32 = getelementptr inbounds [101 x i32], [101 x i32]* %29, i64 0, i64 %31
  %33 = call i32 (i8*, ...) @__isoc99_scanf(i8* getelementptr inbounds ([4 x i8], [4 x i8]* @.str.1, i64 0, i64 0), i32* %32)
  br label %34

34:                                               ; preds = %26
  %35 = load i32, i32* %6, align 4
  %36 = add nsw i32 %35, 1
  store i32 %36, i32* %6, align 4
  br label %21

37:                                               ; preds = %21
  %38 = load i32, i32* %5, align 4
  %39 = sext i32 %38 to i64
  %40 = getelementptr inbounds [100 x [101 x i32]], [100 x [101 x i32]]* %2, i64 0, i64 %39
  %41 = load i32, i32* %9, align 4
  %42 = sub nsw i32 %41, 1
  %43 = sext i32 %42 to i64
  %44 = getelementptr inbounds [101 x i32], [101 x i32]* %40, i64 0, i64 %43
  %45 = call i32 (i8*, ...) @__isoc99_scanf(i8* getelementptr inbounds ([3 x i8], [3 x i8]* @.str.2, i64 0, i64 0), i32* %44)
  br label %46

46:                                               ; preds = %37
  %47 = load i32, i32* %5, align 4
  %48 = add nsw i32 %47, 1
  store i32 %48, i32* %5, align 4
  br label %16

49:                                               ; preds = %16
  %50 = call i32 (i8*, ...) @__isoc99_scanf(i8* getelementptr inbounds ([6 x i8], [6 x i8]* @.str, i64 0, i64 0), i32* %9, i32* %13)
  store i32 0, i32* %5, align 4
  br label %51

51:                                               ; preds = %81, %49
  %52 = load i32, i32* %5, align 4
  %53 = load i32, i32* %9, align 4
  %54 = icmp slt i32 %52, %53
  br i1 %54, label %55, label %84

55:                                               ; preds = %51
  store i32 0, i32* %6, align 4
  br label %56

56:                                               ; preds = %69, %55
  %57 = load i32, i32* %6, align 4
  %58 = load i32, i32* %13, align 4
  %59 = sub nsw i32 %58, 1
  %60 = icmp slt i32 %57, %59
  br i1 %60, label %61, label %72

61:                                               ; preds = %56
  %62 = load i32, i32* %5, align 4
  %63 = sext i32 %62 to i64
  %64 = getelementptr inbounds [101 x [100 x i32]], [101 x [100 x i32]]* %3, i64 0, i64 %63
  %65 = load i32, i32* %6, align 4
  %66 = sext i32 %65 to i64
  %67 = getelementptr inbounds [100 x i32], [100 x i32]* %64, i64 0, i64 %66
  %68 = call i32 (i8*, ...) @__isoc99_scanf(i8* getelementptr inbounds ([4 x i8], [4 x i8]* @.str.1, i64 0, i64 0), i32* %67)
  br label %69

69:                                               ; preds = %61
  %70 = load i32, i32* %6, align 4
  %71 = add nsw i32 %70, 1
  store i32 %71, i32* %6, align 4
  br label %56

72:                                               ; preds = %56
  %73 = load i32, i32* %5, align 4
  %74 = sext i32 %73 to i64
  %75 = getelementptr inbounds [101 x [100 x i32]], [101 x [100 x i32]]* %3, i64 0, i64 %74
  %76 = load i32, i32* %13, align 4
  %77 = sub nsw i32 %76, 1
  %78 = sext i32 %77 to i64
  %79 = getelementptr inbounds [100 x i32], [100 x i32]* %75, i64 0, i64 %78
  %80 = call i32 (i8*, ...) @__isoc99_scanf(i8* getelementptr inbounds ([3 x i8], [3 x i8]* @.str.2, i64 0, i64 0), i32* %79)
  br label %81

81:                                               ; preds = %72
  %82 = load i32, i32* %5, align 4
  %83 = add nsw i32 %82, 1
  store i32 %83, i32* %5, align 4
  br label %51

84:                                               ; preds = %51
  store i32 0, i32* %5, align 4
  br label %85

85:                                               ; preds = %132, %84
  %86 = load i32, i32* %5, align 4
  %87 = load i32, i32* %12, align 4
  %88 = icmp slt i32 %86, %87
  br i1 %88, label %89, label %135

89:                                               ; preds = %85
  store i32 0, i32* %6, align 4
  br label %90

90:                                               ; preds = %128, %89
  %91 = load i32, i32* %6, align 4
  %92 = load i32, i32* %13, align 4
  %93 = icmp slt i32 %91, %92
  br i1 %93, label %94, label %131

94:                                               ; preds = %90
  store i32 0, i32* %14, align 4
  store i32 0, i32* %7, align 4
  br label %95

95:                                               ; preds = %117, %94
  %96 = load i32, i32* %7, align 4
  %97 = load i32, i32* %9, align 4
  %98 = icmp sle i32 %96, %97
  br i1 %98, label %99, label %120

99:                                               ; preds = %95
  %100 = load i32, i32* %14, align 4
  %101 = load i32, i32* %5, align 4
  %102 = sext i32 %101 to i64
  %103 = getelementptr inbounds [100 x [101 x i32]], [100 x [101 x i32]]* %2, i64 0, i64 %102
  %104 = load i32, i32* %7, align 4
  %105 = sext i32 %104 to i64
  %106 = getelementptr inbounds [101 x i32], [101 x i32]* %103, i64 0, i64 %105
  %107 = load i32, i32* %106, align 4
  %108 = load i32, i32* %7, align 4
  %109 = sext i32 %108 to i64
  %110 = getelementptr inbounds [101 x [100 x i32]], [101 x [100 x i32]]* %3, i64 0, i64 %109
  %111 = load i32, i32* %6, align 4
  %112 = sext i32 %111 to i64
  %113 = getelementptr inbounds [100 x i32], [100 x i32]* %110, i64 0, i64 %112
  %114 = load i32, i32* %113, align 4
  %115 = mul nsw i32 %107, %114
  %116 = add nsw i32 %100, %115
  store i32 %116, i32* %14, align 4
  br label %117

117:                                              ; preds = %99
  %118 = load i32, i32* %7, align 4
  %119 = add nsw i32 %118, 1
  store i32 %119, i32* %7, align 4
  br label %95

120:                                              ; preds = %95
  %121 = load i32, i32* %14, align 4
  %122 = load i32, i32* %5, align 4
  %123 = sext i32 %122 to i64
  %124 = getelementptr inbounds [100 x [100 x i32]], [100 x [100 x i32]]* %4, i64 0, i64 %123
  %125 = load i32, i32* %6, align 4
  %126 = sext i32 %125 to i64
  %127 = getelementptr inbounds [100 x i32], [100 x i32]* %124, i64 0, i64 %126
  store i32 %121, i32* %127, align 4
  br label %128

128:                                              ; preds = %120
  %129 = load i32, i32* %6, align 4
  %130 = add nsw i32 %129, 1
  store i32 %130, i32* %6, align 4
  br label %90

131:                                              ; preds = %90
  br label %132

132:                                              ; preds = %131
  %133 = load i32, i32* %5, align 4
  %134 = add nsw i32 %133, 1
  store i32 %134, i32* %5, align 4
  br label %85

135:                                              ; preds = %85
  store i32 0, i32* %5, align 4
  br label %136

136:                                              ; preds = %168, %135
  %137 = load i32, i32* %5, align 4
  %138 = load i32, i32* %12, align 4
  %139 = icmp slt i32 %137, %138
  br i1 %139, label %140, label %171

140:                                              ; preds = %136
  store i32 0, i32* %6, align 4
  br label %141

141:                                              ; preds = %155, %140
  %142 = load i32, i32* %6, align 4
  %143 = load i32, i32* %13, align 4
  %144 = sub nsw i32 %143, 1
  %145 = icmp slt i32 %142, %144
  br i1 %145, label %146, label %158

146:                                              ; preds = %141
  %147 = load i32, i32* %5, align 4
  %148 = sext i32 %147 to i64
  %149 = getelementptr inbounds [100 x [100 x i32]], [100 x [100 x i32]]* %4, i64 0, i64 %148
  %150 = load i32, i32* %6, align 4
  %151 = sext i32 %150 to i64
  %152 = getelementptr inbounds [100 x i32], [100 x i32]* %149, i64 0, i64 %151
  %153 = load i32, i32* %152, align 4
  %154 = call i32 (i8*, ...) @printf(i8* getelementptr inbounds ([4 x i8], [4 x i8]* @.str.1, i64 0, i64 0), i32 %153)
  br label %155

155:                                              ; preds = %146
  %156 = load i32, i32* %6, align 4
  %157 = add nsw i32 %156, 1
  store i32 %157, i32* %6, align 4
  br label %141

158:                                              ; preds = %141
  %159 = load i32, i32* %5, align 4
  %160 = sext i32 %159 to i64
  %161 = getelementptr inbounds [100 x [100 x i32]], [100 x [100 x i32]]* %4, i64 0, i64 %160
  %162 = load i32, i32* %13, align 4
  %163 = sub nsw i32 %162, 1
  %164 = sext i32 %163 to i64
  %165 = getelementptr inbounds [100 x i32], [100 x i32]* %161, i64 0, i64 %164
  %166 = load i32, i32* %165, align 4
  %167 = call i32 (i8*, ...) @printf(i8* getelementptr inbounds ([4 x i8], [4 x i8]* @.str.3, i64 0, i64 0), i32 %166)
  br label %168

168:                                              ; preds = %158
  %169 = load i32, i32* %5, align 4
  %170 = add nsw i32 %169, 1
  store i32 %170, i32* %5, align 4
  br label %136

171:                                              ; preds = %136
  %172 = load i32, i32* %1, align 4
  ret i32 %172
}

declare dso_local i32 @__isoc99_scanf(i8*, ...) #1

declare dso_local i32 @printf(i8*, ...) #1


!llvm.module.flags = !{!0}
!llvm.ident = !{!1}

!0 = !{i32 1, !"wchar_size", i32 4}
!1 = !{!"clang version 10.0.0-4ubuntu1 "}
